; Function Attrs: mustprogress uwtable
define void @_ZN8QuantLib9CdsOption7results5resetEv(ptr noundef nonnull align 8 dereferenceable(88) %this) unnamed_addr #9 align 2 personality ptr @__gxx_personality_v0 {
entry:
  %ref.tmp2.i = alloca %"class.QuantLib::Date", align 8
  %errorEstimate.i = getelementptr inbounds nuw i8, ptr %this, i64 16
  store double 0x47EFFFFFE0000000, ptr %errorEstimate.i, align 8, !tbaa !96
  %value.i = getelementptr inbounds nuw i8, ptr %this, i64 8
  store double 0x47EFFFFFE0000000, ptr %value.i, align 8, !tbaa !94
  call void @llvm.lifetime.start.p0(i64 8, ptr nonnull %ref.tmp2.i) #26
  call void @_ZN8QuantLib4DateC1Ev(ptr noundef nonnull align 8 dereferenceable(8) %ref.tmp2.i)
  %valuationDate.i = getelementptr inbounds nuw i8, ptr %this, i64 24
  %0 = load i64, ptr %ref.tmp2.i, align 8, !tbaa !47
  store i64 %0, ptr %valuationDate.i, align 8, !tbaa !47
  call void @llvm.lifetime.end.p0(i64 8, ptr nonnull %ref.tmp2.i) #26
  %additionalResults.i = getelementptr inbounds nuw i8, ptr %this, i64 32
  %_M_parent.i.i.i.i.i = getelementptr inbounds i8, ptr %this, i64 48
  %1 = load ptr, ptr %_M_parent.i.i.i.i.i, align 8, !tbaa !13
  invoke void @_ZNSt8_Rb_treeINSt7__cxx1112basic_stringIcSt11char_traitsIcESaIcEEESt4pairIKS5_N5boost3anyEESt10_Select1stISA_ESt4lessIS5_ESaISA_EE8_M_eraseEPSt13_Rb_tree_nodeISA_E(ptr noundef nonnull align 8 dereferenceable(48) %additionalResults.i, ptr noundef %1)
          to label %_ZN8QuantLib10Instrument7results5resetEv.exit unwind label %terminate.lpad.i.i.i

terminate.lpad.i.i.i:                             ; preds = %entry
  %2 = landingpad { ptr, i32 }
          catch ptr null
  %3 = extractvalue { ptr, i32 } %2, 0
  call void @__clang_call_terminate(ptr %3) #27
  unreachable

_ZN8QuantLib10Instrument7results5resetEv.exit:    ; preds = %entry
  %add.ptr.i.i.i = getelementptr inbounds i8, ptr %this, i64 40
  store ptr null, ptr %_M_parent.i.i.i.i.i, align 8, !tbaa !13
  %_M_left.i.i.i.i = getelementptr inbounds i8, ptr %this, i64 56
  store ptr %add.ptr.i.i.i, ptr %_M_left.i.i.i.i, align 8, !tbaa !14
  %_M_right.i.i.i.i = getelementptr inbounds i8, ptr %this, i64 64
  store ptr %add.ptr.i.i.i, ptr %_M_right.i.i.i.i, align 8, !tbaa !15
  %_M_node_count.i.i.i.i = getelementptr inbounds i8, ptr %this, i64 72
  store i64 0, ptr %_M_node_count.i.i.i.i, align 8, !tbaa !16
  %riskyAnnuity = getelementptr inbounds nuw i8, ptr %this, i64 80
  store double 0x47EFFFFFE0000000, ptr %riskyAnnuity, align 8, !tbaa !91
  ret void
}